target datalayout = "e-m:e-p270:32:32-p271:32:32-p272:64:64-i64:64-i128:128-f80:128-n8:16:32:64-S128"
target triple = "x86_64-pc-linux-gnu"

@.str = private unnamed_addr constant [11 x i8] c"InputLayer\00", align 1
@.str.1 = private unnamed_addr constant [8 x i8] c"input  \00", align 1
@.str.2 = private unnamed_addr constant [7 x i8] c"Conv2D\00", align 1
@.str.3 = private unnamed_addr constant [8 x i8] c"convo  \00", align 1
@.str.4 = private unnamed_addr constant [19 x i8] c"BatchNormalization\00", align 1
@.str.5 = private unnamed_addr constant [8 x i8] c"batch  \00", align 1
@.str.6 = private unnamed_addr constant [11 x i8] c"Activation\00", align 1
@.str.7 = private unnamed_addr constant [8 x i8] c"relu   \00", align 1
@.str.8 = private unnamed_addr constant [4 x i8] c"Add\00", align 1
@.str.9 = private unnamed_addr constant [8 x i8] c"eltwise\00", align 1
@.str.10 = private unnamed_addr constant [13 x i8] c"MaxPooling2D\00", align 1
@.str.11 = private unnamed_addr constant [8 x i8] c"pool   \00", align 1
@.str.12 = private unnamed_addr constant [23 x i8] c"GlobalAveragePooling2D\00", align 1
@.str.13 = private unnamed_addr constant [6 x i8] c"Dense\00", align 1
@.str.14 = private unnamed_addr constant [8 x i8] c"fullcon\00", align 1
@.str.15 = private unnamed_addr constant [14 x i8] c"ZeroPadding2D\00", align 1
@.str.16 = private unnamed_addr constant [4 x i8] c"pad\00", align 1

; Function Attrs: nounwind uwtable
define ptr @Nnc_LayerType2Str(ptr noundef %0) #0 {
  %2 = alloca ptr, align 8
  %3 = alloca ptr, align 8
  store ptr %0, ptr %3, align 8
  %4 = load ptr, ptr %3, align 8
  %5 = call i32 @strcmp(ptr noundef %4, ptr noundef @.str) #8
  %6 = icmp ne i32 %5, 0
  br i1 %6, label %8, label %7

7:                                                ; preds = %1
  store ptr @.str.1, ptr %2, align 8
  br label %49

8:                                                ; preds = %1
  %9 = load ptr, ptr %3, align 8
  %10 = call i32 @strcmp(ptr noundef %9, ptr noundef @.str.2) #8
  %11 = icmp ne i32 %10, 0
  br i1 %11, label %13, label %12

12:                                               ; preds = %8
  store ptr @.str.3, ptr %2, align 8
  br label %49

13:                                               ; preds = %8
  %14 = load ptr, ptr %3, align 8
  %15 = call i32 @strcmp(ptr noundef %14, ptr noundef @.str.4) #8
  %16 = icmp ne i32 %15, 0
  br i1 %16, label %18, label %17

17:                                               ; preds = %13
  store ptr @.str.5, ptr %2, align 8
  br label %49

18:                                               ; preds = %13
  %19 = load ptr, ptr %3, align 8
  %20 = call i32 @strcmp(ptr noundef %19, ptr noundef @.str.6) #8
  %21 = icmp ne i32 %20, 0
  br i1 %21, label %23, label %22

22:                                               ; preds = %18
  store ptr @.str.7, ptr %2, align 8
  br label %49

23:                                               ; preds = %18
  %24 = load ptr, ptr %3, align 8
  %25 = call i32 @strcmp(ptr noundef %24, ptr noundef @.str.8) #8
  %26 = icmp ne i32 %25, 0
  br i1 %26, label %28, label %27

27:                                               ; preds = %23
  store ptr @.str.9, ptr %2, align 8
  br label %49

28:                                               ; preds = %23
  %29 = load ptr, ptr %3, align 8
  %30 = call i32 @strcmp(ptr noundef %29, ptr noundef @.str.10) #8
  %31 = icmp ne i32 %30, 0
  br i1 %31, label %33, label %32

32:                                               ; preds = %28
  store ptr @.str.11, ptr %2, align 8
  br label %49

33:                                               ; preds = %28
  %34 = load ptr, ptr %3, align 8
  %35 = call i32 @strcmp(ptr noundef %34, ptr noundef @.str.12) #8
  %36 = icmp ne i32 %35, 0
  br i1 %36, label %38, label %37

37:                                               ; preds = %33
  store ptr @.str.11, ptr %2, align 8
  br label %49

38:                                               ; preds = %33
  %39 = load ptr, ptr %3, align 8
  %40 = call i32 @strcmp(ptr noundef %39, ptr noundef @.str.13) #8
  %41 = icmp ne i32 %40, 0
  br i1 %41, label %43, label %42

42:                                               ; preds = %38
  store ptr @.str.14, ptr %2, align 8
  br label %49

43:                                               ; preds = %38
  %44 = load ptr, ptr %3, align 8
  %45 = call i32 @strcmp(ptr noundef %44, ptr noundef @.str.15) #8
  %46 = icmp ne i32 %45, 0
  br i1 %46, label %48, label %47

47:                                               ; preds = %43
  store ptr @.str.16, ptr %2, align 8
  br label %49

48:                                               ; preds = %43
  store ptr null, ptr %2, align 8
  br label %49

49:                                               ; preds = %48, %47, %42, %37, %32, %27, %22, %17, %12, %7
  %50 = load ptr, ptr %2, align 8
  ret ptr %50
}