; Function Attrs: mustprogress nofree nounwind willreturn memory(argmem: read) uwtable
define ptr @Nnc_LayerType2Str(ptr noundef readonly captures(none) %0) local_unnamed_addr #0 {
  %2 = tail call i32 @strcmp(ptr noundef nonnull dereferenceable(1) %0, ptr noundef nonnull dereferenceable(11) @.str) #12
  %.not = icmp eq i32 %2, 0
  br i1 %.not, label %19, label %3

3:                                                ; preds = %1
  %4 = tail call i32 @strcmp(ptr noundef nonnull dereferenceable(1) %0, ptr noundef nonnull dereferenceable(7) @.str.2) #12
  %.not10 = icmp eq i32 %4, 0
  br i1 %.not10, label %19, label %5

5:                                                ; preds = %3
  %6 = tail call i32 @strcmp(ptr noundef nonnull dereferenceable(1) %0, ptr noundef nonnull dereferenceable(19) @.str.4) #12
  %.not11 = icmp eq i32 %6, 0
  br i1 %.not11, label %19, label %7

7:                                                ; preds = %5
  %8 = tail call i32 @strcmp(ptr noundef nonnull dereferenceable(1) %0, ptr noundef nonnull dereferenceable(11) @.str.6) #12
  %.not12 = icmp eq i32 %8, 0
  br i1 %.not12, label %19, label %9

9:                                                ; preds = %7
  %10 = tail call i32 @strcmp(ptr noundef nonnull dereferenceable(1) %0, ptr noundef nonnull dereferenceable(4) @.str.8) #12
  %.not13 = icmp eq i32 %10, 0
  br i1 %.not13, label %19, label %11

11:                                               ; preds = %9
  %12 = tail call i32 @strcmp(ptr noundef nonnull dereferenceable(1) %0, ptr noundef nonnull dereferenceable(13) @.str.10) #12
  %.not14 = icmp eq i32 %12, 0
  br i1 %.not14, label %19, label %13

13:                                               ; preds = %11
  %14 = tail call i32 @strcmp(ptr noundef nonnull dereferenceable(1) %0, ptr noundef nonnull dereferenceable(23) @.str.12) #12
  %.not15 = icmp eq i32 %14, 0
  br i1 %.not15, label %19, label %15

15:                                               ; preds = %13
  %16 = tail call i32 @strcmp(ptr noundef nonnull dereferenceable(1) %0, ptr noundef nonnull dereferenceable(6) @.str.13) #12
  %.not16 = icmp eq i32 %16, 0
  br i1 %.not16, label %19, label %17

17:                                               ; preds = %15
  %18 = tail call i32 @strcmp(ptr noundef nonnull dereferenceable(1) %0, ptr noundef nonnull dereferenceable(14) @.str.15) #12
  %.not17 = icmp eq i32 %18, 0
  %.str.16. = select i1 %.not17, ptr @.str.16, ptr null
  br label %19

19:                                               ; preds = %17, %15, %13, %11, %9, %7, %5, %3, %1
  %.0 = phi ptr [ @.str.1, %1 ], [ @.str.3, %3 ], [ @.str.5, %5 ], [ @.str.7, %7 ], [ @.str.9, %9 ], [ @.str.11, %11 ], [ @.str.11, %13 ], [ @.str.14, %15 ], [ %.str.16., %17 ]
  ret ptr %.0
}